; Function Attrs: mustprogress uwtable
define internal void @_ZN7testing8internal11MatcherBaseIRKSt5tupleIJN12_GLOBAL__N_18FunctionEPKvN4absl13base_internal10ObjectKindEEEE12DescribeImplINSD_11ValuePolicyINS0_9EqMatcherISA_EELb0EEEEEvRKSD_PSob(ptr noundef nonnull readonly align 8 captures(none) dereferenceable(24) %0, ptr noundef %1, i1 noundef zeroext %2) #3 align 2 {
  %4 = getelementptr inbounds nuw i8, ptr %0, i64 16
  %.val = load ptr, ptr %4, align 8, !tbaa !22
  br i1 %2, label %5, label %7

5:                                                ; preds = %3
  %6 = tail call noundef nonnull align 8 dereferenceable(8) ptr @_ZSt16__ostream_insertIcSt11char_traitsIcEERSt13basic_ostreamIT_T0_ES6_PKS3_l(ptr noundef nonnull align 8 dereferenceable(8) %1, ptr noundef nonnull @.str.18, i64 noundef 14)
  br label %9

7:                                                ; preds = %3
  %8 = tail call noundef nonnull align 8 dereferenceable(8) ptr @_ZSt16__ostream_insertIcSt11char_traitsIcEERSt13basic_ostreamIT_T0_ES6_PKS3_l(ptr noundef nonnull align 8 dereferenceable(8) %1, ptr noundef nonnull @.str.22, i64 noundef 11)
  br label %9

9:                                                ; preds = %7, %5
  %10 = getelementptr inbounds nuw i8, ptr %.val, i64 8
  %11 = tail call noundef nonnull align 8 dereferenceable(8) ptr @_ZSt16__ostream_insertIcSt11char_traitsIcEERSt13basic_ostreamIT_T0_ES6_PKS3_l(ptr noundef nonnull align 8 dereferenceable(8) %1, ptr noundef nonnull @.str.17, i64 noundef 1)
  tail call fastcc void @_ZN7testing8internal14UniversalPrintISt5tupleIJN12_GLOBAL__N_18FunctionEPKvN4absl13base_internal10ObjectKindEEEEEvRKT_PSo(ptr noundef nonnull align 8 dereferenceable(24) %10, ptr noundef nonnull %1)
  ret void
}